; Function Attrs: nounwind uwtable
define dso_local void @php_sxe_rewind_iterator(ptr noundef %0) local_unnamed_addr #1 {
  %2 = getelementptr inbounds i8, ptr %0, i64 64
  %3 = load i8, ptr %2, align 8
  %4 = icmp eq i8 %3, 0
  br i1 %4, label %7, label %5

5:                                                ; preds = %1
  %6 = getelementptr inbounds i8, ptr %0, i64 56
  tail call void @zval_ptr_dtor(ptr noundef nonnull %6) #14
  store i32 0, ptr %2, align 8
  br label %7

7:                                                ; preds = %5, %1
  %8 = load ptr, ptr %0, align 8
  %.not.i.i = icmp eq ptr %8, null
  br i1 %.not.i.i, label %.thread.i.i, label %9

9:                                                ; preds = %7
  %10 = load ptr, ptr %8, align 8
  %.not14.i.i = icmp eq ptr %10, null
  br i1 %.not14.i.i, label %.thread.i.i, label %11

.thread.i.i:                                      ; preds = %9, %7
  tail call void (ptr, ptr, ...) @zend_throw_error(ptr noundef null, ptr noundef nonnull @.str.1) #14
  br label %php_sxe_reset_iterator.exit

11:                                               ; preds = %9
  %12 = getelementptr inbounds i8, ptr %0, i64 52
  %13 = load i32, ptr %12, align 4
  %14 = icmp ult i32 %13, 4
  br i1 %14, label %switch.lookup, label %18

switch.lookup:                                    ; preds = %11
  %15 = zext nneg i32 %13 to i64
  %switch.gep = getelementptr inbounds [4 x i64], ptr @switch.table.php_sxe_iterator_rewind, i64 0, i64 %15
  %switch.load = load i64, ptr %switch.gep, align 8
  %16 = getelementptr inbounds i8, ptr %10, i64 %switch.load
  %17 = load ptr, ptr %16, align 8
  br label %18

18:                                               ; preds = %11, %switch.lookup
  %.1.i.i = phi ptr [ %10, %11 ], [ %17, %switch.lookup ]
  %19 = tail call fastcc ptr @php_sxe_iterator_fetch(ptr noundef nonnull %0, ptr noundef %.1.i.i, i32 noundef 1)
  br label %php_sxe_reset_iterator.exit

php_sxe_reset_iterator.exit:                      ; preds = %.thread.i.i, %18
  ret void
}